target datalayout = "e-m:e-p270:32:32-p271:32:32-p272:64:64-i64:64-i128:128-f80:128-n8:16:32:64-S128"
target triple = "x86_64-unknown-linux-gnu"

%"class.icu_75::SearchIterator" = type { %"class.icu_75::UObject", ptr, ptr, %"class.icu_75::UnicodeString" }
%"class.icu_75::UObject" = type { ptr }
%"class.icu_75::UnicodeString" = type { %"class.icu_75::Replaceable", %"union.icu_75::UnicodeString::StackBufferOrFields" }
%"class.icu_75::Replaceable" = type { %"class.icu_75::UObject" }
%"union.icu_75::UnicodeString::StackBufferOrFields" = type { %struct.anon.0, [32 x i8] }
%struct.anon.0 = type { i16, i32, i32, ptr }
%struct.USearch = type { ptr, i32, i8, i8, i16, ptr, ptr, i32, i32, i8, i8 }

; Function Attrs: mustprogress uwtable
define void @_ZN6icu_7514SearchIterator16setMatchNotFoundEv(ptr noundef nonnull align 8 dereferenceable(88) %this) #0 align 2 {
entry:
  %this.addr = alloca ptr, align 8
  %status = alloca i32, align 4
  store ptr %this, ptr %this.addr, align 8
  %this1 = load ptr, ptr %this.addr, align 8
  %vtable = load ptr, ptr %this1, align 8
  %vfn = getelementptr inbounds ptr, ptr %vtable, i64 13
  %0 = load ptr, ptr %vfn, align 8
  call void %0(ptr noundef nonnull align 8 dereferenceable(88) %this1, i32 noundef -1)
  %vtable2 = load ptr, ptr %this1, align 8
  %vfn3 = getelementptr inbounds ptr, ptr %vtable2, i64 12
  %1 = load ptr, ptr %vfn3, align 8
  call void %1(ptr noundef nonnull align 8 dereferenceable(88) %this1, i32 noundef 0)
  store i32 0, ptr %status, align 4
  %m_search_ = getelementptr inbounds %"class.icu_75::SearchIterator", ptr %this1, i32 0, i32 1
  %2 = load ptr, ptr %m_search_, align 8
  %isForwardSearching = getelementptr inbounds %struct.USearch, ptr %2, i32 0, i32 9
  %3 = load i8, ptr %isForwardSearching, align 8
  %tobool = icmp ne i8 %3, 0
  br i1 %tobool, label %if.then, label %if.else

if.then:                                          ; preds = %entry
  %m_search_4 = getelementptr inbounds %"class.icu_75::SearchIterator", ptr %this1, i32 0, i32 1
  %4 = load ptr, ptr %m_search_4, align 8
  %textLength = getelementptr inbounds %struct.USearch, ptr %4, i32 0, i32 1
  %5 = load i32, ptr %textLength, align 8
  %vtable5 = load ptr, ptr %this1, align 8
  %vfn6 = getelementptr inbounds ptr, ptr %vtable5, i64 3
  %6 = load ptr, ptr %vfn6, align 8
  call void %6(ptr noundef nonnull align 8 dereferenceable(88) %this1, i32 noundef %5, ptr noundef nonnull align 4 dereferenceable(4) %status)
  br label %if.end

if.else:                                          ; preds = %entry
  %vtable7 = load ptr, ptr %this1, align 8
  %vfn8 = getelementptr inbounds ptr, ptr %vtable7, i64 3
  %7 = load ptr, ptr %vfn8, align 8
  call void %7(ptr noundef nonnull align 8 dereferenceable(88) %this1, i32 noundef 0, ptr noundef nonnull align 4 dereferenceable(4) %status)
  br label %if.end

if.end:                                           ; preds = %if.else, %if.then
  ret void
}