; Function Attrs: mustprogress uwtable
define void @_ZN6icu_7514SearchIterator16setMatchNotFoundEv(ptr noundef nonnull align 8 dereferenceable(88) %this) local_unnamed_addr #0 align 2 {
entry:
  %status = alloca i32, align 4
  %vtable = load ptr, ptr %this, align 8
  %vfn = getelementptr inbounds i8, ptr %vtable, i64 104
  %0 = load ptr, ptr %vfn, align 8
  tail call void %0(ptr noundef nonnull align 8 dereferenceable(88) %this, i32 noundef -1)
  %vtable2 = load ptr, ptr %this, align 8
  %vfn3 = getelementptr inbounds i8, ptr %vtable2, i64 96
  %1 = load ptr, ptr %vfn3, align 8
  tail call void %1(ptr noundef nonnull align 8 dereferenceable(88) %this, i32 noundef 0)
  store i32 0, ptr %status, align 4
  %m_search_ = getelementptr inbounds i8, ptr %this, i64 8
  %2 = load ptr, ptr %m_search_, align 8
  %isForwardSearching = getelementptr inbounds i8, ptr %2, i64 40
  %3 = load i8, ptr %isForwardSearching, align 8
  %tobool.not = icmp eq i8 %3, 0
  br i1 %tobool.not, label %if.end, label %if.then

if.then:                                          ; preds = %entry
  %textLength = getelementptr inbounds i8, ptr %2, i64 8
  %4 = load i32, ptr %textLength, align 8
  br label %if.end

if.end:                                           ; preds = %entry, %if.then
  %.sink = phi i32 [ %4, %if.then ], [ 0, %entry ]
  %vtable7 = load ptr, ptr %this, align 8
  %vfn8 = getelementptr inbounds i8, ptr %vtable7, i64 24
  %5 = load ptr, ptr %vfn8, align 8
  call void %5(ptr noundef nonnull align 8 dereferenceable(88) %this, i32 noundef %.sink, ptr noundef nonnull align 4 dereferenceable(4) %status)
  ret void
}